target datalayout = "e-m:e-p270:32:32-p271:32:32-p272:64:64-i64:64-i128:128-f80:128-n8:16:32:64-S128"
target triple = "x86_64-pc-linux-gnu"

@.str = private unnamed_addr constant [4 x i8] c"und\00", align 1

; Function Attrs: nounwind uwtable
define i32 @ff_mov_iso639_to_lang(ptr noundef %0, i32 noundef %1) #0 {
  %3 = alloca i32, align 4
  %4 = alloca ptr, align 8
  %5 = alloca i32, align 4
  %6 = alloca i32, align 4
  %7 = alloca i32, align 4
  %8 = alloca i32, align 4
  %9 = alloca i8, align 1
  store ptr %0, ptr %4, align 8, !tbaa !4
  store i32 %1, ptr %5, align 4, !tbaa !9
  call void @llvm.lifetime.start.p0(i64 4, ptr %6) #6
  call void @llvm.lifetime.start.p0(i64 4, ptr %7) #6
  store i32 0, ptr %7, align 4, !tbaa !9
  store i32 0, ptr %6, align 4, !tbaa !9
  br label %10

10:                                               ; preds = %36, %2
  %11 = load ptr, ptr %4, align 8, !tbaa !4
  %12 = getelementptr inbounds i8, ptr %11, i64 0
  %13 = load i8, ptr %12, align 1, !tbaa !11
  %14 = sext i8 %13 to i32
  %15 = icmp ne i32 %14, 0
  br i1 %15, label %16, label %23

16:                                               ; preds = %10
  %17 = load i32, ptr %5, align 4, !tbaa !9
  %18 = icmp ne i32 %17, 0
  br i1 %18, label %23, label %19

19:                                               ; preds = %16
  %20 = load i32, ptr %6, align 4, !tbaa !9
  %21 = sext i32 %20 to i64
  %22 = icmp ult i64 %21, 139
  br label %23

23:                                               ; preds = %19, %16, %10
  %24 = phi i1 [ false, %16 ], [ false, %10 ], [ %22, %19 ]
  br i1 %24, label %25, label %39

25:                                               ; preds = %23
  %26 = load ptr, ptr %4, align 8, !tbaa !4
  %27 = load i32, ptr %6, align 4, !tbaa !9
  %28 = sext i32 %27 to i64
  %29 = getelementptr inbounds [139 x [4 x i8]], ptr @mov_mdhd_language_map, i64 0, i64 %28
  %30 = getelementptr inbounds [4 x i8], ptr %29, i64 0, i64 0
  %31 = call i32 @strcmp(ptr noundef %26, ptr noundef %30) #7
  %32 = icmp ne i32 %31, 0
  br i1 %32, label %35, label %33

33:                                               ; preds = %25
  %34 = load i32, ptr %6, align 4, !tbaa !9
  store i32 %34, ptr %3, align 4
  store i32 1, ptr %8, align 4
  br label %83

35:                                               ; preds = %25
  br label %36

36:                                               ; preds = %35
  %37 = load i32, ptr %6, align 4, !tbaa !9
  %38 = add nsw i32 %37, 1
  store i32 %38, ptr %6, align 4, !tbaa !9
  br label %10, !llvm.loop !12

39:                                               ; preds = %23
  %40 = load i32, ptr %5, align 4, !tbaa !9
  %41 = icmp ne i32 %40, 0
  br i1 %41, label %43, label %42

42:                                               ; preds = %39
  store i32 -1, ptr %3, align 4
  store i32 1, ptr %8, align 4
  br label %83

43:                                               ; preds = %39
  %44 = load ptr, ptr %4, align 8, !tbaa !4
  %45 = getelementptr inbounds i8, ptr %44, i64 0
  %46 = load i8, ptr %45, align 1, !tbaa !11
  %47 = sext i8 %46 to i32
  %48 = icmp eq i32 %47, 0
  br i1 %48, label %49, label %50

49:                                               ; preds = %43
  store ptr @.str, ptr %4, align 8, !tbaa !4
  br label %50

50:                                               ; preds = %49, %43
  store i32 0, ptr %6, align 4, !tbaa !9
  br label %51

51:                                               ; preds = %78, %50
  %52 = load i32, ptr %6, align 4, !tbaa !9
  %53 = icmp slt i32 %52, 3
  br i1 %53, label %54, label %81

54:                                               ; preds = %51
  call void @llvm.lifetime.start.p0(i64 1, ptr %9) #6
  %55 = load ptr, ptr %4, align 8, !tbaa !4
  %56 = load i32, ptr %6, align 4, !tbaa !9
  %57 = sext i32 %56 to i64
  %58 = getelementptr inbounds i8, ptr %55, i64 %57
  %59 = load i8, ptr %58, align 1, !tbaa !11
  store i8 %59, ptr %9, align 1, !tbaa !11
  %60 = load i8, ptr %9, align 1, !tbaa !11
  %61 = zext i8 %60 to i32
  %62 = sub nsw i32 %61, 96
  %63 = trunc i32 %62 to i8
  store i8 %63, ptr %9, align 1, !tbaa !11
  %64 = load i8, ptr %9, align 1, !tbaa !11
  %65 = zext i8 %64 to i32
  %66 = icmp sgt i32 %65, 31
  br i1 %66, label %67, label %68

67:                                               ; preds = %54
  store i32 -1, ptr %3, align 4
  store i32 1, ptr %8, align 4
  br label %75

68:                                               ; preds = %54
  %69 = load i32, ptr %7, align 4, !tbaa !9
  %70 = shl i32 %69, 5
  store i32 %70, ptr %7, align 4, !tbaa !9
  %71 = load i8, ptr %9, align 1, !tbaa !11
  %72 = zext i8 %71 to i32
  %73 = load i32, ptr %7, align 4, !tbaa !9
  %74 = or i32 %73, %72
  store i32 %74, ptr %7, align 4, !tbaa !9
  store i32 0, ptr %8, align 4
  br label %75

75:                                               ; preds = %68, %67
  call void @llvm.lifetime.end.p0(i64 1, ptr %9) #6
  %76 = load i32, ptr %8, align 4
  switch i32 %76, label %83 [
    i32 0, label %77
  ]

77:                                               ; preds = %75
  br label %78

78:                                               ; preds = %77
  %79 = load i32, ptr %6, align 4, !tbaa !9
  %80 = add nsw i32 %79, 1
  store i32 %80, ptr %6, align 4, !tbaa !9
  br label %51, !llvm.loop !14

81:                                               ; preds = %51
  %82 = load i32, ptr %7, align 4, !tbaa !9
  store i32 %82, ptr %3, align 4
  store i32 1, ptr %8, align 4
  br label %83

83:                                               ; preds = %81, %75, %42, %33
  call void @llvm.lifetime.end.p0(i64 4, ptr %7) #6
  call void @llvm.lifetime.end.p0(i64 4, ptr %6) #6
  %84 = load i32, ptr %3, align 4
  ret i32 %84
}