; Function Attrs: nofree norecurse nounwind memory(read, inaccessiblemem: none) uwtable
define i32 @ff_mov_iso639_to_lang(ptr noundef readonly captures(none) %0, i32 noundef %1) local_unnamed_addr #0 {
  %3 = load i8, ptr %0, align 1, !tbaa !4
  %4 = icmp ne i8 %3, 0
  %5 = icmp eq i32 %1, 0
  %or.cond.not32 = and i1 %5, %4
  br i1 %or.cond.not32, label %.lr.ph.split, label %.critedge

.lr.ph.split:                                     ; preds = %2, %8
  %indvars.iv = phi i64 [ %indvars.iv.next, %8 ], [ 0, %2 ]
  %6 = getelementptr inbounds nuw [139 x [4 x i8]], ptr @mov_mdhd_language_map, i64 0, i64 %indvars.iv
  %7 = tail call i32 @strcmp(ptr noundef nonnull dereferenceable(1) %0, ptr noundef nonnull dereferenceable(1) %6) #7
  %.not = icmp eq i32 %7, 0
  br i1 %.not, label %.loopexit.loopexit44, label %8

8:                                                ; preds = %.lr.ph.split
  %indvars.iv.next = add nuw nsw i64 %indvars.iv, 1
  %exitcond.not = icmp eq i64 %indvars.iv.next, 139
  br i1 %exitcond.not, label %.critedge, label %.lr.ph.split, !llvm.loop !7

.critedge:                                        ; preds = %8, %2
  br i1 %5, label %.loopexit, label %9

9:                                                ; preds = %.critedge
  %spec.store.select = select i1 %4, ptr %0, ptr @.str
  br label %10

10:                                               ; preds = %9, %14
  %indvars.iv47 = phi i64 [ 0, %9 ], [ %indvars.iv.next48, %14 ]
  %.02443 = phi i32 [ 0, %9 ], [ %18, %14 ]
  %11 = getelementptr inbounds nuw i8, ptr %spec.store.select, i64 %indvars.iv47
  %12 = load i8, ptr %11, align 1, !tbaa !4
  %13 = icmp sgt i8 %12, 95
  br i1 %13, label %14, label %.loopexit

14:                                               ; preds = %10
  %15 = shl i32 %.02443, 5
  %16 = add nsw i8 %12, -96
  %17 = zext nneg i8 %16 to i32
  %18 = or disjoint i32 %15, %17
  %indvars.iv.next48 = add nuw nsw i64 %indvars.iv47, 1
  %exitcond50.not = icmp eq i64 %indvars.iv.next48, 3
  br i1 %exitcond50.not, label %.loopexit, label %10, !llvm.loop !9

.loopexit.loopexit44:                             ; preds = %.lr.ph.split
  %19 = trunc nuw nsw i64 %indvars.iv to i32
  br label %.loopexit

.loopexit:                                        ; preds = %14, %10, %.loopexit.loopexit44, %.critedge
  %.027 = phi i32 [ -1, %.critedge ], [ %19, %.loopexit.loopexit44 ], [ %18, %14 ], [ -1, %10 ]
  ret i32 %.027
}